Certificate:
    Data:
        Version: 1 (0x0)
        Serial Number: 1250999863752 (0x123456709c8)
        Signature Algorithm: sha256WithRSAEncryption
        Issuer: CN=pifclub.ddns.net, ST=HCM, C=VN/emailAddress=emailaddress@pifclub.ddns.net, O=HCMUT, OU=THESIS
        Validity
            Not Before: Apr 21 04:23:02 2023 GMT
            Not After : Apr 20 04:23:02 2024 GMT
        Subject: CN=pifclub.ddns.net, ST=HCM, C=VN/emailAddress=emailaddress@pifclub.ddns.net, O=HCMUT, OU=THESIS
        Subject Public Key Info:
            Public Key Algorithm: rsaEncryption
                RSA Public-Key: (4096 bit)
                Modulus:
                    00:b5:c9:f5:fc:ef:02:60:21:01:e0:98:4a:f0:ac:
                    95:23:2f:35:55:73:0e:49:70:17:a2:c2:f9:7d:41:
                    22:03:7b:02:38:5e:2c:2a:a5:51:83:d3:9e:fd:11:
                    79:31:bb:bf:ce:a3:4c:0b:df:92:47:8e:43:5d:99:
                    16:6c:a8:2d:c6:a8:eb:9c:87:a6:11:08:31:89:7d:
                    76:d8:97:c5:8f:6f:c7:58:d7:81:09:4a:4f:0c:ca:
                    cc:d4:c5:77:17:e1:fc:d1:9d:39:97:96:8e:f7:c8:
                    10:6c:cf:de:3c:36:f6:4a:49:c1:a2:f5:43:39:31:
                    b8:93:97:80:e3:00:a9:88:68:8d:ce:37:75:65:c0:
                    03:03:c7:98:be:74:3c:7e:a0:8b:26:b2:25:51:94:
                    cb:af:ff:2b:39:fa:57:11:97:c9:6b:b5:ae:77:af:
                    55:c0:02:70:84:bc:cd:7a:81:23:eb:c3:0a:05:b2:
                    31:ba:17:10:27:ec:66:b1:d2:ce:7d:1b:22:ae:60:
                    8d:3f:23:6f:1a:2e:3c:8d:a3:87:41:ae:de:2a:7d:
                    1b:c9:7f:89:39:d1:b6:ea:8c:aa:50:9d:7e:6c:2d:
                    1b:c3:db:2e:30:2a:53:bc:56:b6:31:42:db:cd:3e:
                    14:9f:73:73:7c:91:7f:4b:a1:2d:a6:e7:55:ca:66:
                    a3:59:ca:59:57:30:67:b8:07:97:c9:e0:86:23:6e:
                    6c:c7:07:33:21:1a:e4:cc:39:b5:34:7e:96:22:6d:
                    4c:44:e8:fc:00:19:25:c2:1d:8c:20:0c:f9:12:76:
                    52:76:3d:4d:c3:82:7c:9c:fa:b0:2f:65:cc:a5:35:
                    85:1e:b3:8c:1e:71:36:25:5e:1a:67:37:30:3b:2b:
                    6f:48:c1:f5:9e:e6:04:18:e9:be:8a:c4:49:50:6f:
                    1a:d7:70:1e:ca:77:75:1c:db:c8:d9:c5:7a:bd:e5:
                    3e:e9:ca:4a:33:80:a0:c8:b4:9a:8f:a1:80:bc:c0:
                    21:66:ac:6b:05:30:97:61:bc:bd:86:10:ea:f4:4e:
                    c4:79:c8:49:a1:7a:79:3a:cc:ee:10:38:fa:88:63:
                    58:6b:20:57:60:52:14:d6:1a:d8:5b:e3:41:a2:90:
                    a4:6f:7f:12:96:86:2f:c4:bc:01:b4:5b:38:ce:54:
                    da:93:54:15:0e:72:30:80:c8:54:8d:64:12:66:3d:
                    e6:84:9d:27:5d:58:ce:9e:87:81:ed:ca:66:8e:e3:
                    26:5d:a6:ac:3b:5e:0e:90:58:12:e0:c2:d7:d3:52:
                    92:64:ef:8c:a9:c8:9a:ea:09:32:8e:77:2a:0e:29:
                    7b:5b:70:1a:f0:37:1e:f7:24:29:01:9e:9d:b3:40:
                    e6:2f:37
                Exponent: 65537 (0x10001)
    Signature Algorithm: sha256WithRSAEncryption
         a7:00:bf:66:38:fe:c3:15:4e:c6:26:df:59:1a:43:2a:d3:eb:
         de:68:0d:f4:11:b1:e5:0f:a2:5b:45:03:89:f7:5e:3e:74:f0:
         63:33:f1:ac:21:12:20:6c:aa:33:de:61:87:b9:39:28:8a:d1:
         f8:eb:a9:43:49:81:ce:78:24:ad:85:90:d1:8d:d7:0e:fc:56:
         3a:e5:5e:52:28:69:d7:8f:cc:e8:40:de:41:88:ae:03:b3:03:
         97:20:b9:83:af:fa:1b:65:fe:cb:bc:23:90:67:50:51:06:d3:
         26:c3:cc:36:e5:ec:b8:e5:c9:03:fb:d4:06:e9:c8:9e:72:d5:
         9d:04:74:0c:2b:02:69:59:3d:07:bf:80:31:01:73:f1:6f:41:
         55:55:76:80:94:55:9c:b8:9b:47:1f:95:92:5d:a1:28:f8:63:
         23:29:bf:b9:5f:17:7c:9f:b7:52:0d:04:a8:5c:ae:c9:3a:ff:
         3d:72:1c:56:3a:32:ca:e4:1e:31:36:77:19:9d:a9:34:27:24:
         33:6b:a6:f3:bd:b6:41:23:d5:2e:5a:19:da:69:0b:c0:a8:45:
         b8:1d:75:4a:c7:97:19:7d:b5:25:20:ca:b0:d8:9b:6f:e2:f9:
         19:66:ab:a7:b1:c4:f5:16:a4:0f:47:7f:e3:04:aa:6e:33:7e:
         d8:41:8b:39:62:8e:b8:76:2a:ba:18:55:74:8c:e1:83:72:61:
         cf:b5:95:0e:73:09:48:0d:63:fc:b0:b0:2f:11:e4:75:07:59:
         9f:06:ba:bf:8e:87:2a:b4:0a:c0:7e:9d:d6:e5:19:ca:15:da:
         54:5b:b9:a3:b1:41:bc:5a:34:5e:84:f3:1e:91:78:97:10:e8:
         5a:d2:97:d9:d8:a4:13:05:05:46:31:61:35:2e:1a:87:8c:b2:
         6e:02:f3:df:1f:f1:f6:e1:26:22:0c:a3:01:db:58:88:df:e6:
         ee:48:a9:30:a2:2e:3e:7d:62:14:2c:0b:ee:9d:95:3a:eb:e0:
         a4:0f:d7:9d:1f:25:76:3c:94:c6:90:2b:e5:56:14:2f:51:59:
         92:70:ca:5e:9a:37:05:c4:24:de:92:c2:6f:20:ff:11:61:89:
         e7:fe:47:07:e7:29:44:e7:ef:92:36:bd:2d:e6:fc:8a:56:b6:
         e4:06:b9:2a:b8:32:2f:1c:e8:1b:42:2f:7b:46:11:fc:3d:67:
         54:6e:c3:2c:5b:1b:ae:4f:61:e3:02:f0:a3:e2:b8:f3:b0:48:
         42:cb:2b:f1:d6:f6:fc:2d:62:da:4b:bc:c5:0f:93:cd:92:51:
         a4:3c:71:95:59:a9:a9:dd:ca:8a:17:4b:37:31:fb:3d:94:25:
         88:7c:e4:5c:ac:da:24:74
-----BEGIN CERTIFICATE-----
MIIFhTCCA20CBgEjRWcJyDANBgkqhkiG9w0BAQsFADCBhTEZMBcGA1UEAwwQcGlm
Y2x1Yi5kZG5zLm5ldDEMMAoGA1UECAwDSENNMQswCQYDVQQGEwJWTjEsMCoGCSqG
SIb3DQEJARYdZW1haWxhZGRyZXNzQHBpZmNsdWIuZGRucy5uZXQxDjAMBgNVBAoM
BUhDTVVUMQ8wDQYDVQQLDAZUSEVTSVMwHhcNMjMwNDIxMDQyMzAyWhcNMjQwNDIw
MDQyMzAyWjCBhTEZMBcGA1UEAwwQcGlmY2x1Yi5kZG5zLm5ldDEMMAoGA1UECAwD
SENNMQswCQYDVQQGEwJWTjEsMCoGCSqGSIb3DQEJARYdZW1haWxhZGRyZXNzQHBp
ZmNsdWIuZGRucy5uZXQxDjAMBgNVBAoMBUhDTVVUMQ8wDQYDVQQLDAZUSEVTSVMw
ggIiMA0GCSqGSIb3DQEBAQUAA4ICDwAwggIKAoICAQC1yfX87wJgIQHgmErwrJUj
LzVVcw5JcBeiwvl9QSIDewI4XiwqpVGD0579EXkxu7/Oo0wL35JHjkNdmRZsqC3G
qOuch6YRCDGJfXbYl8WPb8dY14EJSk8MyszUxXcX4fzRnTmXlo73yBBsz948NvZK
ScGi9UM5MbiTl4DjAKmIaI3ON3VlwAMDx5i+dDx+oIsmsiVRlMuv/ys5+lcRl8lr
ta53r1XAAnCEvM16gSPrwwoFsjG6FxAn7Gax0s59GyKuYI0/I28aLjyNo4dBrt4q
fRvJf4k50bbqjKpQnX5sLRvD2y4wKlO8VrYxQtvNPhSfc3N8kX9LoS2m51XKZqNZ
yllXMGe4B5fJ4IYjbmzHBzMhGuTMObU0fpYibUxE6PwAGSXCHYwgDPkSdlJ2PU3D
gnyc+rAvZcylNYUes4wecTYlXhpnNzA7K29IwfWe5gQY6b6KxElQbxrXcB7Kd3Uc
28jZxXq95T7pykozgKDItJqPoYC8wCFmrGsFMJdhvL2GEOr0TsR5yEmhenk6zO4Q
OPqIY1hrIFdgUhTWGthb40GikKRvfxKWhi/EvAG0WzjOVNqTVBUOcjCAyFSNZBJm
PeaEnSddWM6eh4HtymaO4yZdpqw7Xg6QWBLgwtfTUpJk74ypyJrqCTKOdyoOKXtb
cBrwNx73JCkBnp2zQOYvNwIDAQABMA0GCSqGSIb3DQEBCwUAA4ICAQCnAL9mOP7D
FU7GJt9ZGkMq0+veaA30EbHlD6JbRQOJ914+dPBjM/GsIRIgbKoz3mGHuTkoitH4
66lDSYHOeCSthZDRjdcO/FY65V5SKGnXj8zoQN5BiK4DswOXILmDr/obZf7LvCOQ
Z1BRBtMmw8w25ey45ckD+9QG6ciectWdBHQMKwJpWT0Hv4AxAXPxb0FVVXaAlFWc
uJtHH5WSXaEo+GMjKb+5Xxd8n7dSDQSoXK7JOv89chxWOjLK5B4xNncZnak0JyQz
a6bzvbZBI9UuWhnaaQvAqEW4HXVKx5cZfbUlIMqw2Jtv4vkZZqunscT1FqQPR3/j
BKpuM37YQYs5Yo64diq6GFV0jOGDcmHPtZUOcwlIDWP8sLAvEeR1B1mfBrq/jocq
tArAfp3W5RnKFdpUW7mjsUG8WjRehPMekXiXEOha0pfZ2KQTBQVGMWE1LhqHjLJu
AvPfH/H24SYiDKMB21iI3+buSKkwoi4+fWIULAvunZU66+CkD9edHyV2PJTGkCvl
VhQvUVmScMpemjcFxCTeksJvIP8RYYnn/kcH5ylE5++SNr0t5vyKVrbkBrkquDIv
HOgbQi97RhH8PWdUbsMsWxuuT2HjAvCj4rjzsEhCyyvx1vb8LWLaS7zFD5PNklGk
PHGVWamp3cqKF0s3Mfs9lCWIfORcrNokdA==
-----END CERTIFICATE-----
